; Function Attrs: mustprogress nofree norecurse nosync nounwind willreturn memory(argmem: read) uwtable
define noundef zeroext i1 @_Z14inputrecDeformPK10t_inputrec(ptr noundef readonly captures(none) %0) local_unnamed_addr #15 {
  %2 = getelementptr inbounds nuw i8, ptr %0, i64 676
  %3 = load float, ptr %2, align 4, !tbaa !243
  %4 = fcmp une float %3, 0.000000e+00
  br i1 %4, label %25, label %5

5:                                                ; preds = %1
  %6 = getelementptr inbounds nuw i8, ptr %0, i64 688
  %7 = getelementptr inbounds nuw i8, ptr %0, i64 692
  %8 = load float, ptr %7, align 4, !tbaa !243
  %9 = fcmp une float %8, 0.000000e+00
  br i1 %9, label %25, label %10

10:                                               ; preds = %5
  %11 = getelementptr inbounds nuw i8, ptr %0, i64 700
  %12 = getelementptr inbounds nuw i8, ptr %0, i64 708
  %13 = load float, ptr %12, align 4, !tbaa !243
  %14 = fcmp une float %13, 0.000000e+00
  br i1 %14, label %25, label %15

15:                                               ; preds = %10
  %16 = load float, ptr %6, align 4, !tbaa !243
  %17 = fcmp une float %16, 0.000000e+00
  br i1 %17, label %25, label %18

18:                                               ; preds = %15
  %19 = load float, ptr %11, align 4, !tbaa !243
  %20 = fcmp une float %19, 0.000000e+00
  br i1 %20, label %25, label %21

21:                                               ; preds = %18
  %22 = getelementptr inbounds nuw i8, ptr %0, i64 704
  %23 = load float, ptr %22, align 4, !tbaa !243
  %24 = fcmp une float %23, 0.000000e+00
  br label %25

25:                                               ; preds = %21, %18, %15, %10, %5, %1
  %26 = phi i1 [ true, %18 ], [ true, %15 ], [ true, %10 ], [ true, %5 ], [ true, %1 ], [ %24, %21 ]
  ret i1 %26
}